   1               		.file	"main.c"
   2               	__SREG__ = 0x3f
   3               	__SP_H__ = 0x3e
   4               	__SP_L__ = 0x3d
   5               	__CCP__  = 0x34
   6               	__tmp_reg__ = 0
   7               	__zero_reg__ = 1
  15               	.Ltext0:
  16               	.global	main
  18               	main:
  19               	.LFB7:
  20               	.LM1:
  21               	/* prologue: function */
  22               	/* frame size = 0 */
  23               	.LM2:
  24 0000 87B1      		in r24,39-32
  25 0002 8C61      		ori r24,lo8(28)
  26 0004 87B9      		out 39-32,r24
  27               	.LM3:
  28 0006 88B1      		in r24,40-32
  29 0008 8C60      		ori r24,lo8(12)
  30 000a 88B9      		out 40-32,r24
  31               	.LM4:
  32 000c 84B1      		in r24,36-32
  33 000e 806C      		ori r24,lo8(-64)
  34 0010 84B9      		out 36-32,r24
  35               	.LM5:
  36 0012 209A      		sbi 36-32,0
  37               	.LM6:
  38 0014 579A      		sbi 42-32,7
  39               	.LM7:
  40 0016 8AB1      		in r24,42-32
  41 0018 8066      		ori r24,lo8(96)
  42 001a 8AB9      		out 42-32,r24
  43               	.LM8:
  44 001c 89E1      		ldi r24,lo8(25)
  45 001e 90E0      		ldi r25,hi8(25)
  46 0020 9093 C500 		sts (196)+1,r25
  47 0024 8093 C400 		sts 196,r24
  48               	.LM9:
  49 0028 88E9      		ldi r24,lo8(-104)
  50 002a 8093 C100 		sts 193,r24
  51               	.LM10:
  52 002e 86E0      		ldi r24,lo8(6)
  53 0030 8093 C200 		sts 194,r24
  54               	.LM11:
  55 0034 80E6      		ldi r24,lo8(96)
  56 0036 8093 7C00 		sts 124,r24
  57               	.LM12:
  58 003a 80E8      		ldi r24,lo8(-128)
  59 003c 8093 7A00 		sts 122,r24
  60               	.LM13:
  61 0040 83EA      		ldi r24,lo8(-93)
  62 0042 84BD      		out 68-32,r24
  63               	.LM14:
  64 0044 82E0      		ldi r24,lo8(2)
  65 0046 85BD      		out 69-32,r24
  66               	.LM15:
  67 0048 17BC      		out 71-32,__zero_reg__
  68               	.LM16:
  69 004a 18BC      		out 72-32,__zero_reg__
  70               	.LM17:
  71               	/* #APP */
  72               	 ;  73 "main.c" 1
  73 004c 7894      		sei
  74               	 ;  0 "" 2
  75               	.LM18:
  76               	/* #NOAPP */
  77 004e 81E0      		ldi r24,lo8(1)
  78 0050 62E0      		ldi r22,lo8(2)
  79 0052 48EC      		ldi r20,lo8(-56)
  80 0054 00D0      		rcall motor
  81               	.LM19:
  82 0056 82E0      		ldi r24,lo8(2)
  83 0058 62E0      		ldi r22,lo8(2)
  84 005a 48EC      		ldi r20,lo8(-56)
  85 005c 00D0      		rcall motor
  86               	.LM20:
  87 005e 48E0      		ldi r20,lo8(8)
  88               	.LBB12:
  89               	.LBB13:
  90               	.LBB14:
  91               	.LBB15:
  92               	.LM21:
  93 0060 28EC      		ldi r18,lo8(200)
  94 0062 30E0      		ldi r19,hi8(200)
  95               	.LVL0:
  96               	.L3:
  97               	.LBE15:
  98               	.LBE14:
  99               	.LBE13:
 100               	.LBE12:
 101               	.LM22:
 102 0064 88B1      		in r24,40-32
 103               	.LVL1:
 104 0066 8427      		eor r24,r20
 105 0068 88B9      		out 40-32,r24
 106 006a 80ED      		ldi r24,lo8(2000)
 107 006c 97E0      		ldi r25,hi8(2000)
 108               	.LVL2:
 109               	.L2:
 110               	.LBB19:
 111               	.LBB18:
 112               	.LBB17:
 113               	.LBB16:
 114               	.LM23:
 115 006e F901      		movw r30,r18
 116               	/* #APP */
 117               	 ;  105 "c:/winavr-20100110/lib/gcc/../../avr/include/util/delay_basic.h" 1
 118 0070 3197      		1: sbiw r30,1
 119 0072 01F4      		brne 1b
 120               	 ;  0 "" 2
 121               	/* #NOAPP */
 122               	.LBE16:
 123               	.LBE17:
 124               	.LM24:
 125 0074 0197      		sbiw r24,1
 126               	.LM25:
 127 0076 01F4      		brne .L2
 128 0078 00C0      		rjmp .L3
 129               	.LBE18:
 130               	.LBE19:
 131               	.LFE7:
 133               		.data
 134               	.LC0:
 135 0000 4652 4F4E 		.string	"FRONT:"
 135      543A 00
 136               	.LC1:
 137 0007 4241 434B 		.string	"BACK:"
 137      3A00 
 138               	.LC2:
 139 000d 504F 5745 		.string	"POWER:"
 139      523A 00
 140               		.text
 141               	.global	__vector_18
 143               	__vector_18:
 144               	.LFB6:
 145               	.LM26:
 146 007a 1F92      		push __zero_reg__
 147 007c 0F92      		push r0
 148 007e 0FB6      		in r0,__SREG__
 149 0080 0F92      		push r0
 150 0082 1124      		clr __zero_reg__
 151 0084 2F93      		push r18
 152 0086 3F93      		push r19
 153 0088 4F93      		push r20
 154 008a 5F93      		push r21
 155 008c 6F93      		push r22
 156 008e 7F93      		push r23
 157 0090 8F93      		push r24
 158 0092 9F93      		push r25
 159 0094 AF93      		push r26
 160 0096 BF93      		push r27
 161 0098 EF93      		push r30
 162 009a FF93      		push r31
 163               	/* prologue: Signal */
 164               	/* frame size = 0 */
 165               	.LM27:
 166               	/* #APP */
 167               	 ;  27 "main.c" 1
 168 009c F894      		cli
 169               	 ;  0 "" 2
 170               	.LM28:
 171               	/* #NOAPP */
 172 009e 8091 C600 		lds r24,198
 173               	.LVL3:
 174               	.LM29:
 175 00a2 8133      		cpi r24,lo8(49)
 176 00a4 01F4      		brne .L7
 177 00a6 88B1      		in r24,40-32
 178               	.LVL4:
 179 00a8 94E0      		ldi r25,lo8(4)
 180 00aa 8927      		eor r24,r25
 181 00ac 88B9      		out 40-32,r24
 182 00ae 00C0      		rjmp .L8
 183               	.LVL5:
 184               	.L7:
 185               	.LM30:
 186 00b0 8233      		cpi r24,lo8(50)
 187 00b2 01F4      		brne .L8
 188               	.LM31:
 189 00b4 80E0      		ldi r24,lo8(.LC0)
 190 00b6 90E0      		ldi r25,hi8(.LC0)
 191               	.LVL6:
 192 00b8 00D0      		rcall send_string
 193               	.LM32:
 194 00ba 85E0      		ldi r24,lo8(5)
 195 00bc 00D0      		rcall get_ADC
 196 00be 00D0      		rcall send_number
 197               	.LM33:
 198 00c0 80E0      		ldi r24,lo8(.LC1)
 199 00c2 90E0      		ldi r25,hi8(.LC1)
 200 00c4 00D0      		rcall send_string
 201               	.LM34:
 202 00c6 81E0      		ldi r24,lo8(1)
 203 00c8 00D0      		rcall get_ADC
 204 00ca 00D0      		rcall send_number
 205               	.LM35:
 206 00cc 80E0      		ldi r24,lo8(.LC2)
 207 00ce 90E0      		ldi r25,hi8(.LC2)
 208 00d0 00D0      		rcall send_string
 209               	.LM36:
 210 00d2 80E0      		ldi r24,lo8(0)
 211 00d4 00D0      		rcall get_ADC
 212 00d6 00D0      		rcall send_number
 213               	.LVL7:
 214               	.L8:
 215               	.LM37:
 216               	/* #APP */
 217               	 ;  39 "main.c" 1
 218 00d8 7894      		sei
 219               	 ;  0 "" 2
 220               	/* epilogue start */
 221               	.LM38:
 222               	/* #NOAPP */
 223 00da FF91      		pop r31
 224 00dc EF91      		pop r30
 225 00de BF91      		pop r27
 226 00e0 AF91      		pop r26
 227 00e2 9F91      		pop r25
 228 00e4 8F91      		pop r24
 229               	.LVL8:
 230 00e6 7F91      		pop r23
 231 00e8 6F91      		pop r22
 232 00ea 5F91      		pop r21
 233 00ec 4F91      		pop r20
 234 00ee 3F91      		pop r19
 235 00f0 2F91      		pop r18
 236 00f2 0F90      		pop r0
 237 00f4 0FBE      		out __SREG__,r0
 238 00f6 0F90      		pop r0
 239 00f8 1F90      		pop __zero_reg__
 240 00fa 1895      		reti
 241               	.LFE6:
 275               	.Letext0:
DEFINED SYMBOLS
                            *ABS*:00000000 main.c
C:\Users\RAFA~1\AppData\Local\Temp/ccysAauf.s:2      *ABS*:0000003f __SREG__
C:\Users\RAFA~1\AppData\Local\Temp/ccysAauf.s:3      *ABS*:0000003e __SP_H__
C:\Users\RAFA~1\AppData\Local\Temp/ccysAauf.s:4      *ABS*:0000003d __SP_L__
C:\Users\RAFA~1\AppData\Local\Temp/ccysAauf.s:5      *ABS*:00000034 __CCP__
C:\Users\RAFA~1\AppData\Local\Temp/ccysAauf.s:6      *ABS*:00000000 __tmp_reg__
C:\Users\RAFA~1\AppData\Local\Temp/ccysAauf.s:7      *ABS*:00000001 __zero_reg__
C:\Users\RAFA~1\AppData\Local\Temp/ccysAauf.s:18     .text:00000000 main
C:\Users\RAFA~1\AppData\Local\Temp/ccysAauf.s:143    .text:0000007a __vector_18

UNDEFINED SYMBOLS
motor
send_string
get_ADC
send_number
__do_copy_data
